; Function Attrs: mustprogress nofree norecurse nosync nounwind willreturn memory(read, inaccessiblemem: none) uwtable
define noundef i32 @_ZN12duckdb_miniz15mz_zip_is_zip64EPNS_14mz_zip_archiveE(ptr noundef readonly captures(address_is_null) %0) local_unnamed_addr #22 {
  %.not = icmp eq ptr %0, null
  br i1 %.not, label %8, label %2

2:                                                ; preds = %1
  %3 = getelementptr inbounds nuw i8, ptr %0, i64 104
  %4 = load ptr, ptr %3, align 8, !tbaa !204
  %.not5 = icmp eq ptr %4, null
  br i1 %.not5, label %8, label %5

5:                                                ; preds = %2
  %6 = getelementptr inbounds nuw i8, ptr %4, i64 100
  %7 = load i32, ptr %6, align 4, !tbaa !224
  br label %8

8:                                                ; preds = %1, %2, %5
  %.0 = phi i32 [ %7, %5 ], [ 0, %2 ], [ 0, %1 ]
  ret i32 %.0
}